///////////////////////////////////////////////////////////////////////////////
//
// IAR C/C++ Compiler V10.30.1.6000 for 8051              20/Jul/2020  22:03:51
// Copyright 2004-2018 IAR Systems AB.
// Evaluation license - IAR Embedded Workbench for 8051, Evaluation edition 10.30
//
//    Core               =  plain
//    Code model         =  banked
//    Data model         =  large
//    Calling convention =  xdata reentrant
//    Constant location  =  data_rom
//    Dptr setup         =  1,16
//                          
//    Source file        =  
//        C:\Z-Stack Home 1.2.2a.44539\Components\hal\target\CC2530EB\hal_key.c
//    Command line       =  
//        -f C:\Users\Peter.Wu\AppData\Local\Temp\EWFF16.tmp ("C:\Z-Stack Home
//        1.2.2a.44539\Components\hal\target\CC2530EB\hal_key.c" -D SECURE=1 -D
//        TC_LINKKEY_JOIN -D NV_INIT -D xNV_RESTORE -D xHOLD_AUTO_START -D
//        ZTOOL_P1 -D MT_TASK -D MT_APP_FUNC -D MT_SYS_FUNC -D MT_ZDO_FUNC -D
//        LCD_SUPPORTED=DEBUG -D MULTICAST_ENABLED=FALSE -D ZCL_READ -D
//        ZCL_WRITE -D ZCL_REPORT -D ZCL_EZMODE -D ZCL_BASIC -D ZCL_IDENTIFY -D
//        ZCL_ON_OFF -D ZCL_SCENES -D ZCL_GROUPS -D xZCL_LEVEL_CTRL -D
//        ZCL_DIAGNOSTIC -D FEATURE_SYSTEM_STATS -lC "C:\Z-Stack Home
//        1.2.2a.44539\Projects\zstack\HomeAutomation\KillBox\CC2530DB\CoordinatorEB\List"
//        -lA "C:\Z-Stack Home
//        1.2.2a.44539\Projects\zstack\HomeAutomation\KillBox\CC2530DB\CoordinatorEB\List"
//        --diag_suppress Pe001,Pa010 -o "C:\Z-Stack Home
//        1.2.2a.44539\Projects\zstack\HomeAutomation\KillBox\CC2530DB\CoordinatorEB\Obj"
//        -e --debug --core=plain --dptr=16,1 --data_model=large
//        --code_model=banked --calling_convention=xdata_reentrant
//        --place_constants=data_rom --nr_virtual_regs 16 -f "C:\Z-Stack Home
//        1.2.2a.44539\Projects\zstack\HomeAutomation\KillBox\CC2530DB\..\..\..\Tools\CC2530DB\f8wCoord.cfg"
//        (-DCPU32MHZ -DROOT=__near_func -DMAC_CFG_APP_PENDING_QUEUE=TRUE
//        -DMAC_CFG_TX_DATA_MAX=5 -DMAC_CFG_TX_MAX=8 -DMAC_CFG_RX_MAX=5
//        -DZDO_COORDINATOR -DRTR_NWK) -f "C:\Z-Stack Home
//        1.2.2a.44539\Projects\zstack\HomeAutomation\KillBox\CC2530DB\..\..\..\Tools\CC2530DB\f8wConfig.cfg"
//        (-DZIGBEEPRO -DSECURE=1 -DZG_SECURE_DYNAMIC=0 -DREFLECTOR
//        -DDEFAULT_CHANLIST=0x00000800 -DZDAPP_CONFIG_PAN_ID=0xD882
//        -DNWK_START_DELAY=100 -DEXTENDED_JOINING_RANDOM_MASK=0x007F
//        -DBEACON_REQUEST_DELAY=100 -DBEACON_REQ_DELAY_MASK=0x00FF
//        -DLINK_STATUS_JITTER_MASK=0x007F -DROUTE_EXPIRY_TIME=30
//        -DAPSC_ACK_WAIT_DURATION_POLLED=3000 -DNWK_INDIRECT_MSG_TIMEOUT=7
//        -DMAX_RREQ_ENTRIES=8 -DAPSC_MAX_FRAME_RETRIES=3
//        -DNWK_MAX_DATA_RETRIES=2 -DMAX_POLL_FAILURE_RETRIES=2 -DMAX_BCAST=9
//        -DAPS_MAX_GROUPS=16 -DMAX_RTG_ENTRIES=40 -DNWK_MAX_BINDING_ENTRIES=4
//        -DMAX_BINDING_CLUSTER_IDS=4 "-DDEFAULT_KEY={0x05, 0x69, 0x67, 0x42,
//        0x65, 0x65, 0x41, 0x6C, 0x6C, 0x69, 0x61, 0x6E, 0x63, 0x65, 0x30,
//        0x39}" -DMAC_MAX_FRAME_SIZE=116 -DZDNWKMGR_MIN_TRANSMISSIONS=20
//        "-DCONST=const __code" -DGENERIC=__generic -DRFD_RCVC_ALWAYS_ON=FALSE
//        -DPOLL_RATE=1000 -DQUEUED_POLL_RATE=100 -DRESPONSE_POLL_RATE=100
//        -DREJOIN_POLL_RATE=440 -DREJOIN_BACKOFF=900000 -DREJOIN_SCAN=900000)
//        -f "C:\Z-Stack Home
//        1.2.2a.44539\Projects\zstack\HomeAutomation\KillBox\CC2530DB\..\..\..\Tools\CC2530DB\f8wZCL.cfg"
//        -I "C:\Z-Stack Home
//        1.2.2a.44539\Projects\zstack\HomeAutomation\KillBox\CC2530DB\" -I
//        "C:\Z-Stack Home
//        1.2.2a.44539\Projects\zstack\HomeAutomation\KillBox\CC2530DB\..\Source\"
//        -I "C:\Z-Stack Home
//        1.2.2a.44539\Projects\zstack\HomeAutomation\KillBox\CC2530DB\..\..\Source\"
//        -I "C:\Z-Stack Home
//        1.2.2a.44539\Projects\zstack\HomeAutomation\KillBox\CC2530DB\..\..\..\ZMain\TI2530DB\"
//        -I "C:\Z-Stack Home
//        1.2.2a.44539\Projects\zstack\HomeAutomation\KillBox\CC2530DB\..\..\..\..\..\Components\hal\include\"
//        -I "C:\Z-Stack Home
//        1.2.2a.44539\Projects\zstack\HomeAutomation\KillBox\CC2530DB\..\..\..\..\..\Components\hal\target\CC2530EB\"
//        -I "C:\Z-Stack Home
//        1.2.2a.44539\Projects\zstack\HomeAutomation\KillBox\CC2530DB\..\..\..\..\..\Components\mac\include\"
//        -I "C:\Z-Stack Home
//        1.2.2a.44539\Projects\zstack\HomeAutomation\KillBox\CC2530DB\..\..\..\..\..\Components\mac\high_level\"
//        -I "C:\Z-Stack Home
//        1.2.2a.44539\Projects\zstack\HomeAutomation\KillBox\CC2530DB\..\..\..\..\..\Components\mac\low_level\srf04\"
//        -I "C:\Z-Stack Home
//        1.2.2a.44539\Projects\zstack\HomeAutomation\KillBox\CC2530DB\..\..\..\..\..\Components\mac\low_level\srf04\single_chip\"
//        -I "C:\Z-Stack Home
//        1.2.2a.44539\Projects\zstack\HomeAutomation\KillBox\CC2530DB\..\..\..\..\..\Components\mt\"
//        -I "C:\Z-Stack Home
//        1.2.2a.44539\Projects\zstack\HomeAutomation\KillBox\CC2530DB\..\..\..\..\..\Components\osal\include\"
//        -I "C:\Z-Stack Home
//        1.2.2a.44539\Projects\zstack\HomeAutomation\KillBox\CC2530DB\..\..\..\..\..\Components\services\saddr\"
//        -I "C:\Z-Stack Home
//        1.2.2a.44539\Projects\zstack\HomeAutomation\KillBox\CC2530DB\..\..\..\..\..\Components\services\sdata\"
//        -I "C:\Z-Stack Home
//        1.2.2a.44539\Projects\zstack\HomeAutomation\KillBox\CC2530DB\..\..\..\..\..\Components\stack\af\"
//        -I "C:\Z-Stack Home
//        1.2.2a.44539\Projects\zstack\HomeAutomation\KillBox\CC2530DB\..\..\..\..\..\Components\stack\nwk\"
//        -I "C:\Z-Stack Home
//        1.2.2a.44539\Projects\zstack\HomeAutomation\KillBox\CC2530DB\..\..\..\..\..\Components\stack\sapi\"
//        -I "C:\Z-Stack Home
//        1.2.2a.44539\Projects\zstack\HomeAutomation\KillBox\CC2530DB\..\..\..\..\..\Components\stack\sec\"
//        -I "C:\Z-Stack Home
//        1.2.2a.44539\Projects\zstack\HomeAutomation\KillBox\CC2530DB\..\..\..\..\..\Components\stack\sys\"
//        -I "C:\Z-Stack Home
//        1.2.2a.44539\Projects\zstack\HomeAutomation\KillBox\CC2530DB\..\..\..\..\..\Components\stack\zcl\"
//        -I "C:\Z-Stack Home
//        1.2.2a.44539\Projects\zstack\HomeAutomation\KillBox\CC2530DB\..\..\..\..\..\Components\stack\zdo\"
//        -I "C:\Z-Stack Home
//        1.2.2a.44539\Projects\zstack\HomeAutomation\KillBox\CC2530DB\..\..\..\..\..\Components\zmac\"
//        -I "C:\Z-Stack Home
//        1.2.2a.44539\Projects\zstack\HomeAutomation\KillBox\CC2530DB\..\..\..\..\..\Components\zmac\f8w\"
//        -Ohz --require_prototypes)
//    Locale             =  Chinese (Simplified)_CHN.936
//    List file          =  
//        C:\Z-Stack Home
//        1.2.2a.44539\Projects\zstack\HomeAutomation\KillBox\CC2530DB\CoordinatorEB\List\hal_key.s51
//
///////////////////////////////////////////////////////////////////////////////

        NAME hal_key

        RTMODEL "__SystemLibrary", "CLib"
        RTMODEL "__calling_convention", "xdata_reentrant"
        RTMODEL "__code_model", "banked"
        RTMODEL "__core", "plain"
        RTMODEL "__data_model", "large"
        RTMODEL "__dptr_size", "16"
        RTMODEL "__extended_stack", "disabled"
        RTMODEL "__location_for_constants", "data"
        RTMODEL "__number_of_dptrs", "1"
        RTMODEL "__register_banks", "*"
        RTMODEL "__rt_version", "1"

        RSEG DOVERLAY:DATA:NOROOT(0)
        RSEG IOVERLAY:IDATA:NOROOT(0)
        RSEG ISTACK:IDATA:NOROOT(0)
        RSEG PSTACK:XDATA:NOROOT(0)
        RSEG XSTACK:XDATA:NOROOT(0)

        EXTERN ?BANKED_ENTER_XDATA
        EXTERN ?BANKED_LEAVE_XDATA
        EXTERN ?BDISPATCH
        EXTERN ?BRET
        EXTERN ?CALL_IND
        EXTERN ?DEALLOC_XSTACK8
        EXTERN ?INTERRUPT_ENTER_XSP
        EXTERN ?INTERRUPT_LEAVE_XSP
        EXTERN ?PUSH_XSTACK8_X_FOUR
        EXTERN __INIT_XDATA_Z

        PUBLIC `??HalKeyConfig::?relay`
        FUNCTION `??HalKeyConfig::?relay`,0203H
        PUBLIC `??HalKeyEnterSleep::?relay`
        FUNCTION `??HalKeyEnterSleep::?relay`,0203H
        PUBLIC `??HalKeyExitSleep::?relay`
        FUNCTION `??HalKeyExitSleep::?relay`,0203H
        PUBLIC `??HalKeyInit::?relay`
        FUNCTION `??HalKeyInit::?relay`,0203H
        PUBLIC `??HalKeyPoll::?relay`
        FUNCTION `??HalKeyPoll::?relay`,0203H
        PUBLIC `??HalKeyRead::?relay`
        FUNCTION `??HalKeyRead::?relay`,0203H
        PUBLIC `??halGetJoyKeyInput::?relay`
        FUNCTION `??halGetJoyKeyInput::?relay`,0203H
        PUBWEAK `??halKeyPort0Isr::??INTVEC 107`
        PUBWEAK `??halKeyPort2Isr::??INTVEC 51`
        PUBLIC `??halProcessKeyInterrupt::?relay`
        FUNCTION `??halProcessKeyInterrupt::?relay`,0203H
        PUBLIC HalKeyConfig
        FUNCTION HalKeyConfig,021203H
        ARGFRAME XSTACK, 0, STACK
        LOCFRAME XSTACK, 9, STACK
        PUBLIC HalKeyEnterSleep
        FUNCTION HalKeyEnterSleep,0203H
        ARGFRAME XSTACK, 0, STACK
        PUBLIC HalKeyExitSleep
        FUNCTION HalKeyExitSleep,021203H
        ARGFRAME XSTACK, 0, STACK
        LOCFRAME ISTACK, 2, STACK
        PUBLIC HalKeyInit
        FUNCTION HalKeyInit,0203H
        ARGFRAME XSTACK, 0, STACK
        LOCFRAME ISTACK, 2, STACK
        PUBLIC HalKeyPoll
        FUNCTION HalKeyPoll,0203H
        ARGFRAME XSTACK, 0, STACK
        LOCFRAME ISTACK, 2, STACK
        PUBLIC HalKeyRead
        FUNCTION HalKeyRead,0203H
        ARGFRAME XSTACK, 0, STACK
        ARGFRAME IOVERLAY, 0, STATIC
        ARGFRAME DOVERLAY, 0, STATIC
        PUBLIC Hal_KeyIntEnable
        PUBWEAK P1DIR
        PUBWEAK P1IEN
        PUBWEAK P1IFG
        PUBWEAK P1SEL
        PUBWEAK P2IFG
        PUBWEAK PICTL
        PUBLIC UV_Auto_Turn_Off
        PUBWEAK _A_IEN0
        PUBWEAK _A_IEN1
        PUBWEAK _A_IRCON
        PUBWEAK _A_IRCON2
        PUBWEAK _A_P1
        PUBWEAK __Constant_19
        PUBLIC halGetJoyKeyInput
        FUNCTION halGetJoyKeyInput,021203H
        ARGFRAME XSTACK, 0, STACK
        LOCFRAME XSTACK, 9, STACK
        PUBLIC halKeyPort0Isr
        FUNCTION halKeyPort0Isr,021233H
        ARGFRAME XSTACK, 0, STACK
        LOCFRAME XSTACK, 14, STACK
        PUBLIC halKeyPort2Isr
        FUNCTION halKeyPort2Isr,021233H
        ARGFRAME XSTACK, 0, STACK
        LOCFRAME XSTACK, 14, STACK
        PUBLIC halProcessKeyInterrupt
        FUNCTION halProcessKeyInterrupt,021203H
        ARGFRAME XSTACK, 14, STACK
        ARGFRAME IOVERLAY, 0, STATIC
        ARGFRAME DOVERLAY, 0, STATIC
        LOCFRAME ISTACK, 2, STACK
        LOCFRAME XSTACK, 4, STACK
        
          CFI Names cfiNames0
          CFI StackFrame CFA_SP SP IDATA
          CFI StackFrame CFA_PSP16 PSP16 XDATA
          CFI StackFrame CFA_XSP16 XSP16 XDATA
          CFI StaticOverlayFrame CFA_IOVERLAY IOVERLAY
          CFI StaticOverlayFrame CFA_DOVERLAY DOVERLAY
          CFI Resource `PSW.CY`:1, `B.BR0`:1, `B.BR1`:1, `B.BR2`:1, `B.BR3`:1
          CFI Resource `B.BR4`:1, `B.BR5`:1, `B.BR6`:1, `B.BR7`:1, `VB.BR8`:1
          CFI Resource `VB.BR9`:1, `VB.BR10`:1, `VB.BR11`:1, `VB.BR12`:1
          CFI Resource `VB.BR13`:1, `VB.BR14`:1, `VB.BR15`:1, VB:8, B:8, A:8
          CFI Resource PSW:8, DPL0:8, DPH0:8, R0:8, R1:8, R2:8, R3:8, R4:8, R5:8
          CFI Resource R6:8, R7:8, V0:8, V1:8, V2:8, V3:8, V4:8, V5:8, V6:8, V7:8
          CFI Resource V8:8, V9:8, V10:8, V11:8, V12:8, V13:8, V14:8, V15:8, SP:8
          CFI Resource PSPH:8, PSPL:8, PSP16:16, XSPH:8, XSPL:8, XSP16:16
          CFI VirtualResource ?RET:24
          CFI Resource ?BRET_EXT:8
          CFI VirtualResource ?RET_HIGH:8, ?RET_LOW:8
          CFI ResourceParts PSP16 PSPH, PSPL
          CFI ResourceParts XSP16 XSPH, XSPL
          CFI ResourceParts ?RET ?BRET_EXT, ?RET_HIGH, ?RET_LOW
          CFI EndNames cfiNames0
        
          CFI Common cfiCommon0 Using cfiNames0
          CFI CodeAlign 1
          CFI DataAlign -1
          CFI ReturnAddress ?RET CODE
          CFI CFA_DOVERLAY Used
          CFI CFA_IOVERLAY Used
          CFI CFA_SP SP+-3
          CFI CFA_PSP16 PSP16+0
          CFI CFA_XSP16 XSP16+0
          CFI `PSW.CY` SameValue
          CFI `B.BR0` SameValue
          CFI `B.BR1` SameValue
          CFI `B.BR2` SameValue
          CFI `B.BR3` SameValue
          CFI `B.BR4` SameValue
          CFI `B.BR5` SameValue
          CFI `B.BR6` SameValue
          CFI `B.BR7` SameValue
          CFI `VB.BR8` SameValue
          CFI `VB.BR9` SameValue
          CFI `VB.BR10` SameValue
          CFI `VB.BR11` SameValue
          CFI `VB.BR12` SameValue
          CFI `VB.BR13` SameValue
          CFI `VB.BR14` SameValue
          CFI `VB.BR15` SameValue
          CFI VB SameValue
          CFI B Undefined
          CFI A Undefined
          CFI PSW SameValue
          CFI DPL0 SameValue
          CFI DPH0 SameValue
          CFI R0 Undefined
          CFI R1 Undefined
          CFI R2 Undefined
          CFI R3 Undefined
          CFI R4 Undefined
          CFI R5 Undefined
          CFI R6 SameValue
          CFI R7 SameValue
          CFI V0 SameValue
          CFI V1 SameValue
          CFI V2 SameValue
          CFI V3 SameValue
          CFI V4 SameValue
          CFI V5 SameValue
          CFI V6 SameValue
          CFI V7 SameValue
          CFI V8 SameValue
          CFI V9 SameValue
          CFI V10 SameValue
          CFI V11 SameValue
          CFI V12 SameValue
          CFI V13 SameValue
          CFI V14 SameValue
          CFI V15 SameValue
          CFI PSPH Undefined
          CFI PSPL Undefined
          CFI XSPH Undefined
          CFI XSPL Undefined
          CFI ?RET Concat
          CFI ?BRET_EXT Frame(CFA_SP, 3)
          CFI ?RET_HIGH Frame(CFA_SP, 2)
          CFI ?RET_LOW Frame(CFA_SP, 1)
          CFI EndCommon cfiCommon0
        
        
          CFI Common cfiCommon1 Using cfiNames0
          CFI CodeAlign 1
          CFI DataAlign -1
          CFI ReturnAddress ?RET CODE
          CFI CFA_DOVERLAY Used
          CFI CFA_IOVERLAY Used
          CFI CFA_SP SP+-2
          CFI CFA_PSP16 PSP16+0
          CFI CFA_XSP16 XSP16+0
          CFI `PSW.CY` SameValue
          CFI `B.BR0` SameValue
          CFI `B.BR1` SameValue
          CFI `B.BR2` SameValue
          CFI `B.BR3` SameValue
          CFI `B.BR4` SameValue
          CFI `B.BR5` SameValue
          CFI `B.BR6` SameValue
          CFI `B.BR7` SameValue
          CFI `VB.BR8` SameValue
          CFI `VB.BR9` SameValue
          CFI `VB.BR10` SameValue
          CFI `VB.BR11` SameValue
          CFI `VB.BR12` SameValue
          CFI `VB.BR13` SameValue
          CFI `VB.BR14` SameValue
          CFI `VB.BR15` SameValue
          CFI VB SameValue
          CFI B SameValue
          CFI A SameValue
          CFI PSW SameValue
          CFI DPL0 SameValue
          CFI DPH0 SameValue
          CFI R0 SameValue
          CFI R1 SameValue
          CFI R2 SameValue
          CFI R3 SameValue
          CFI R4 SameValue
          CFI R5 SameValue
          CFI R6 SameValue
          CFI R7 SameValue
          CFI V0 SameValue
          CFI V1 SameValue
          CFI V2 SameValue
          CFI V3 SameValue
          CFI V4 SameValue
          CFI V5 SameValue
          CFI V6 SameValue
          CFI V7 SameValue
          CFI V8 SameValue
          CFI V9 SameValue
          CFI V10 SameValue
          CFI V11 SameValue
          CFI V12 SameValue
          CFI V13 SameValue
          CFI V14 SameValue
          CFI V15 SameValue
          CFI PSPH Undefined
          CFI PSPL Undefined
          CFI XSPH Undefined
          CFI XSPL Undefined
          CFI ?RET Concat
          CFI ?BRET_EXT SameValue
          CFI ?RET_HIGH Frame(CFA_SP, 2)
          CFI ?RET_LOW Frame(CFA_SP, 1)
          CFI EndCommon cfiCommon1
        
HalAdcRead          SYMBOL "HalAdcRead"
`??HalAdcRead::?relay` SYMBOL "?relay", HalAdcRead
osal_set_event      SYMBOL "osal_set_event"
`??osal_set_event::?relay` SYMBOL "?relay", osal_set_event
osal_start_timerEx  SYMBOL "osal_start_timerEx"
`??osal_start_timerEx::?relay` SYMBOL "?relay", osal_start_timerEx
osal_stop_timerEx   SYMBOL "osal_stop_timerEx"
`??osal_stop_timerEx::?relay` SYMBOL "?relay", osal_stop_timerEx
HalKeyConfig        SYMBOL "HalKeyConfig"
`??HalKeyConfig::?relay` SYMBOL "?relay", HalKeyConfig
HalKeyEnterSleep    SYMBOL "HalKeyEnterSleep"
`??HalKeyEnterSleep::?relay` SYMBOL "?relay", HalKeyEnterSleep
HalKeyExitSleep     SYMBOL "HalKeyExitSleep"
`??HalKeyExitSleep::?relay` SYMBOL "?relay", HalKeyExitSleep
HalKeyInit          SYMBOL "HalKeyInit"
`??HalKeyInit::?relay` SYMBOL "?relay", HalKeyInit
HalKeyPoll          SYMBOL "HalKeyPoll"
`??HalKeyPoll::?relay` SYMBOL "?relay", HalKeyPoll
HalKeyRead          SYMBOL "HalKeyRead"
`??HalKeyRead::?relay` SYMBOL "?relay", HalKeyRead
halGetJoyKeyInput   SYMBOL "halGetJoyKeyInput"
`??halGetJoyKeyInput::?relay` SYMBOL "?relay", halGetJoyKeyInput
halKeyPort0Isr      SYMBOL "halKeyPort0Isr"
`??halKeyPort0Isr::??INTVEC 107` SYMBOL "??INTVEC 107", halKeyPort0Isr
halKeyPort2Isr      SYMBOL "halKeyPort2Isr"
`??halKeyPort2Isr::??INTVEC 51` SYMBOL "??INTVEC 51", halKeyPort2Isr
halProcessKeyInterrupt SYMBOL "halProcessKeyInterrupt"
`??halProcessKeyInterrupt::?relay` SYMBOL "?relay", halProcessKeyInterrupt

        EXTERN `??HalAdcRead::?relay`
        FUNCTION `??HalAdcRead::?relay`,00H
        EXTERN `??osal_set_event::?relay`
        FUNCTION `??osal_set_event::?relay`,00H
        EXTERN `??osal_start_timerEx::?relay`
        FUNCTION `??osal_start_timerEx::?relay`,00H
        EXTERN `??osal_stop_timerEx::?relay`
        FUNCTION `??osal_stop_timerEx::?relay`,00H
        EXTERN HalAdcRead
        FUNCTION HalAdcRead,0202H
        ARGFRAME ISTACK, 0, STACK
        ARGFRAME PSTACK, 0, STACK
        ARGFRAME XSTACK, 9, STACK
        ARGFRAME IOVERLAY, 0, STATIC
        ARGFRAME DOVERLAY, 0, STATIC
        EXTERN Hal_TaskID
        EXTERN osal_set_event
        FUNCTION osal_set_event,0202H
        ARGFRAME ISTACK, 0, STACK
        ARGFRAME PSTACK, 0, STACK
        ARGFRAME XSTACK, 9, STACK
        ARGFRAME IOVERLAY, 0, STATIC
        ARGFRAME DOVERLAY, 0, STATIC
        EXTERN osal_start_timerEx
        FUNCTION osal_start_timerEx,0202H
        ARGFRAME ISTACK, 2, STACK
        ARGFRAME PSTACK, 0, STACK
        ARGFRAME XSTACK, 4, STACK
        ARGFRAME IOVERLAY, 0, STATIC
        ARGFRAME DOVERLAY, 0, STATIC
        EXTERN osal_stop_timerEx
        FUNCTION osal_stop_timerEx,0202H
        ARGFRAME ISTACK, 0, STACK
        ARGFRAME PSTACK, 0, STACK
        ARGFRAME XSTACK, 9, STACK
        ARGFRAME IOVERLAY, 0, STATIC
        ARGFRAME DOVERLAY, 0, STATIC

// C:\Z-Stack Home 1.2.2a.44539\Components\hal\target\CC2530EB\hal_key.c
//    1 /**************************************************************************************************
//    2   Filename:       hal_key.c
//    3   Revised:        $Date: 2010-09-15 19:02:45 -0700 (Wed, 15 Sep 2010) $
//    4   Revision:       $Revision: 23815 $
//    5 
//    6   Description:    This file contains the interface to the HAL KEY Service.
//    7 
//    8 
//    9   Copyright 2006-2010 Texas Instruments Incorporated. All rights reserved.
//   10 
//   11   IMPORTANT: Your use of this Software is limited to those specific rights
//   12   granted under the terms of a software license agreement between the user
//   13   who downloaded the software, his/her employer (which must be your employer)
//   14   and Texas Instruments Incorporated (the "License").  You may not use this
//   15   Software unless you agree to abide by the terms of the License. The License
//   16   limits your use, and you acknowledge, that the Software may not be modified,
//   17   copied or distributed unless embedded on a Texas Instruments microcontroller
//   18   or used solely and exclusively in conjunction with a Texas Instruments radio
//   19   frequency transceiver, which is integrated into your product.  Other than for
//   20   the foregoing purpose, you may not use, reproduce, copy, prepare derivative
//   21   works of, modify, distribute, perform, display or sell this Software and/or
//   22   its documentation for any purpose.
//   23 
//   24   YOU FURTHER ACKNOWLEDGE AND AGREE THAT THE SOFTWARE AND DOCUMENTATION ARE
//   25   PROVIDED “AS IS” WITHOUT WARRANTY OF ANY KIND, EITHER EXPRESS OR IMPLIED,
//   26   INCLUDING WITHOUT LIMITATION, ANY WARRANTY OF MERCHANTABILITY, TITLE,
//   27   NON-INFRINGEMENT AND FITNESS FOR A PARTICULAR PURPOSE. IN NO EVENT SHALL
//   28   TEXAS INSTRUMENTS OR ITS LICENSORS BE LIABLE OR OBLIGATED UNDER CONTRACT,
//   29   NEGLIGENCE, STRICT LIABILITY, CONTRIBUTION, BREACH OF WARRANTY, OR OTHER
//   30   LEGAL EQUITABLE THEORY ANY DIRECT OR INDIRECT DAMAGES OR EXPENSES
//   31   INCLUDING BUT NOT LIMITED TO ANY INCIDENTAL, SPECIAL, INDIRECT, PUNITIVE
//   32   OR CONSEQUENTIAL DAMAGES, LOST PROFITS OR LOST DATA, COST OF PROCUREMENT
//   33   OF SUBSTITUTE GOODS, TECHNOLOGY, SERVICES, OR ANY CLAIMS BY THIRD PARTIES
//   34   (INCLUDING BUT NOT LIMITED TO ANY DEFENSE THEREOF), OR OTHER SIMILAR COSTS.
//   35 
//   36   Should you have any questions regarding your right to use this Software,
//   37   contact Texas Instruments Incorporated at www.TI.com.
//   38 **************************************************************************************************/
//   39 /*********************************************************************
//   40  NOTE: If polling is used, the hal_driver task schedules the KeyRead()
//   41        to occur every 100ms.  This should be long enough to naturally
//   42        debounce the keys.  The KeyRead() function remembers the key
//   43        state of the previous poll and will only return a non-zero
//   44        value if the key state changes.
//   45 
//   46  NOTE: If interrupts are used, the KeyRead() function is scheduled
//   47        25ms after the interrupt occurs by the ISR.  This delay is used
//   48        for key debouncing.  The ISR disables any further Key interrupt
//   49        until KeyRead() is executed.  KeyRead() will re-enable Key
//   50        interrupts after executing.  Unlike polling, when interrupts
//   51        are enabled, the previous key state is not remembered.  This
//   52        means that KeyRead() will return the current state of the keys
//   53        (not a change in state of the keys).
//   54 
//   55  NOTE: If interrupts are used, the KeyRead() fucntion is scheduled by
//   56        the ISR.  Therefore, the joystick movements will only be detected
//   57        during a pushbutton interrupt caused by S1 or the center joystick
//   58        pushbutton.
//   59 
//   60  NOTE: When a switch like S1 is pushed, the S1 signal goes from a normally
//   61        high state to a low state.  This transition is typically clean.  The
//   62        duration of the low state is around 200ms.  When the signal returns
//   63        to the high state, there is a high likelihood of signal bounce, which
//   64        causes a unwanted interrupts.  Normally, we would set the interrupt
//   65        edge to falling edge to generate an interrupt when S1 is pushed, but
//   66        because of the signal bounce, it is better to set the edge to rising
//   67        edge to generate an interrupt when S1 is released.  The debounce logic
//   68        can then filter out the signal bounce.  The result is that we typically
//   69        get only 1 interrupt per button push.  This mechanism is not totally
//   70        foolproof because occasionally, signal bound occurs during the falling
//   71        edge as well.  A similar mechanism is used to handle the joystick
//   72        pushbutton on the DB.  For the EB, we do not have independent control
//   73        of the interrupt edge for the S1 and center joystick pushbutton.  As
//   74        a result, only one or the other pushbuttons work reasonably well with
//   75        interrupts.  The default is the make the S1 switch on the EB work more
//   76        reliably.
//   77 
//   78 *********************************************************************/
//   79 
//   80 /**************************************************************************************************
//   81  *                                            INCLUDES
//   82  **************************************************************************************************/
//   83 #include "hal_mcu.h"

        ASEGN SFR_AN:DATA:NOROOT,08aH
// unsigned char volatile __sfr P1IFG
P1IFG:
        DATA8
        DS 1

        ASEGN SFR_AN:DATA:NOROOT,08bH
// unsigned char volatile __sfr P2IFG
P2IFG:
        DATA8
        DS 1

        ASEGN SFR_AN:DATA:NOROOT,08cH
// unsigned char volatile __sfr PICTL
PICTL:
        DATA8
        DS 1

        ASEGN SFR_AN:DATA:NOROOT,08dH
// unsigned char volatile __sfr P1IEN
P1IEN:
        DATA8
        DS 1

        ASEGN SFR_AN:DATA:NOROOT,090H
// union <unnamed> volatile __sfr _A_P1
_A_P1:
        DATA8
        DS 1

        ASEGN SFR_AN:DATA:NOROOT,0a8H
// union <unnamed> volatile __sfr _A_IEN0
_A_IEN0:
        DATA8
        DS 1

        ASEGN SFR_AN:DATA:NOROOT,0b8H
// union <unnamed> volatile __sfr _A_IEN1
_A_IEN1:
        DATA8
        DS 1

        ASEGN SFR_AN:DATA:NOROOT,0c0H
// union <unnamed> volatile __sfr _A_IRCON
_A_IRCON:
        DATA8
        DS 1

        ASEGN SFR_AN:DATA:NOROOT,0e8H
// union <unnamed> volatile __sfr _A_IRCON2
_A_IRCON2:
        DATA8
        DS 1

        ASEGN SFR_AN:DATA:NOROOT,0f4H
// unsigned char volatile __sfr P1SEL
P1SEL:
        DATA8
        DS 1

        ASEGN SFR_AN:DATA:NOROOT,0feH
// unsigned char volatile __sfr P1DIR
P1DIR:
        DATA8
        DS 1
//   84 #include "hal_defs.h"
//   85 #include "hal_types.h"
//   86 #include "hal_board.h"
//   87 #include "hal_drivers.h"
//   88 #include "hal_adc.h"
//   89 #include "hal_key.h"
//   90 #include "osal.h"
//   91    

        RSEG XDATA_Z:XDATA:NOROOT(0)
        DATA8
//   92 uint8 UV_Auto_Turn_Off = 0;
UV_Auto_Turn_Off:
        DS 1
        REQUIRE __INIT_XDATA_Z
//   93 
//   94 #if (defined HAL_KEY) && (HAL_KEY == TRUE)
//   95 
//   96 /**************************************************************************************************
//   97  *                                              MACROS
//   98  **************************************************************************************************/
//   99 
//  100 /**************************************************************************************************
//  101  *                                            CONSTANTS
//  102  **************************************************************************************************/
//  103 #define HAL_KEY_RISING_EDGE   0
//  104 #define HAL_KEY_FALLING_EDGE  1
//  105 
//  106 #define HAL_KEY_DEBOUNCE_VALUE  25
//  107 
//  108 /* CPU port interrupt */
//  109 #define HAL_KEY_CPU_PORT_0_IF P0IF
//  110 #define HAL_KEY_CPU_PORT_2_IF P2IF
//  111 
//  112 /* Button GPIO Setting */
//  113 /* SW_6 is at P1.2 */
//  114 #define HAL_KEY_SW_6_PORT   P1
//  115 #define HAL_KEY_SW_6_BIT    BV(2)
//  116 #define HAL_KEY_SW_6_SEL    P1SEL
//  117 #define HAL_KEY_SW_6_DIR    P1DIR
//  118 
//  119 /* edge interrupt */
//  120 #define HAL_KEY_SW_6_EDGEBIT  BV(0)
//  121 #define HAL_KEY_SW_6_EDGE     HAL_KEY_FALLING_EDGE
//  122 
//  123 
//  124 /* SW_6 interrupts */
//  125 #define HAL_KEY_SW_6_IEN      IEN1  /* CPU interrupt mask register */
//  126 #define HAL_KEY_SW_6_IENBIT   BV(1) /* Mask bit for all of Port_1 */
//  127 #define HAL_KEY_SW_6_ICTL     P1IEN /* Port Interrupt Control register */
//  128 #define HAL_KEY_SW_6_ICTLBIT  BV(1) /* P0IEN - P1.2 enable/disable bit */
//  129 #define HAL_KEY_SW_6_PXIFG    P1IFG /* Interrupt flag at source */
//  130 
//  131 /* Reed Switch GPIO Setting */
//  132 /* SW_5 is at P1.1 */
//  133 #define HAL_KEY_SW_5_PORT   P1
//  134 
//  135 #define HAL_KEY_SW_5_BIT    BV(1)
//  136 #define HAL_KEY_SW_5_SEL    P1SEL
//  137 #define HAL_KEY_SW_5_DIR    P1DIR
//  138 
//  139 /* edge interrupt */
//  140 #define HAL_KEY_SW_5_EDGEBIT  BV(0)
//  141 #define HAL_KEY_SW_5_EDGE     HAL_KEY_FALLING_EDGE
//  142 
//  143 /* SW_5 interrupts */
//  144 #define HAL_KEY_SW_5_IEN      IEN1  /* CPU interrupt mask register */
//  145 #define HAL_KEY_SW_5_IENBIT   BV(1) /* Mask bit for all of Port_1 */
//  146 #define HAL_KEY_SW_5_ICTL     P1IEN /* Port Interrupt Control register */
//  147 #define HAL_KEY_SW_5_ICTLBIT  BV(1) /* P2IEN - P1.1 enable/disable bit */
//  148 #define HAL_KEY_SW_5_PXIFG    P1IFG /* Interrupt flag at source */
//  149 
//  150 /* Unless Setting */
//  151 /* Joy stick move at P2.0 */
//  152 #define HAL_KEY_JOY_MOVE_PORT   P2
//  153 #define HAL_KEY_JOY_MOVE_BIT    BV(0)
//  154 #define HAL_KEY_JOY_MOVE_SEL    P2SEL
//  155 #define HAL_KEY_JOY_MOVE_DIR    P2DIR
//  156 
//  157 /* edge interrupt */
//  158 #define HAL_KEY_JOY_MOVE_EDGEBIT  BV(3)
//  159 #define HAL_KEY_JOY_MOVE_EDGE     HAL_KEY_FALLING_EDGE
//  160 
//  161 /* Joy move interrupts */
//  162 #define HAL_KEY_JOY_MOVE_IEN      IEN2  /* CPU interrupt mask register */
//  163 #define HAL_KEY_JOY_MOVE_IENBIT   BV(1) /* Mask bit for all of Port_2 */
//  164 #define HAL_KEY_JOY_MOVE_ICTL     P2IEN /* Port Interrupt Control register */
//  165 #define HAL_KEY_JOY_MOVE_ICTLBIT  BV(0) /* P2IENL - P2.0<->P2.3 enable/disable bit */
//  166 #define HAL_KEY_JOY_MOVE_PXIFG    P2IFG /* Interrupt flag at source */
//  167 
//  168 #define HAL_KEY_JOY_CHN   HAL_ADC_CHANNEL_6
//  169 
//  170 
//  171 /**************************************************************************************************
//  172  *                                            TYPEDEFS
//  173  **************************************************************************************************/
//  174 
//  175 
//  176 /**************************************************************************************************
//  177  *                                        GLOBAL VARIABLES
//  178  **************************************************************************************************/

        RSEG XDATA_Z:XDATA:NOROOT(0)
        DATA8
//  179 static uint8 halKeySavedKeys;     /* used to store previous key state in polling mode */
halKeySavedKeys:
        DS 1
        REQUIRE __INIT_XDATA_Z

        RSEG XDATA_Z:XDATA:NOROOT(0)
        DATA16
//  180 static halKeyCBack_t pHalKeyProcessFunction;
pHalKeyProcessFunction:
        DS 2
        REQUIRE __INIT_XDATA_Z

        RSEG XDATA_Z:XDATA:NOROOT(0)
        DATA8
//  181 static uint8 HalKeyConfigured;
HalKeyConfigured:
        DS 1
        REQUIRE __INIT_XDATA_Z

        RSEG XDATA_Z:XDATA:NOROOT(0)
        DATA8
//  182 bool Hal_KeyIntEnable;            /* interrupt enable/disable flag */
Hal_KeyIntEnable:
        DS 1
        REQUIRE __INIT_XDATA_Z
//  183 
//  184 /**************************************************************************************************
//  185  *                                        FUNCTIONS - Local
//  186  **************************************************************************************************/
//  187 void halProcessKeyInterrupt(void);
//  188 uint8 halGetJoyKeyInput(void);
//  189 
//  190 
//  191 
//  192 /**************************************************************************************************
//  193  *                                        FUNCTIONS - API
//  194  **************************************************************************************************/
//  195 
//  196 
//  197 /**************************************************************************************************
//  198  * @fn      HalKeyInit
//  199  *
//  200  * @brief   Initilize Key Service
//  201  *
//  202  * @param   none
//  203  *
//  204  * @return  None
//  205  **************************************************************************************************/

        RSEG BANKED_CODE:HUGECODE:NOROOT(0)
//  206 void HalKeyInit( void )
HalKeyInit:
          CFI Block cfiBlock0 Using cfiCommon0
          CFI Function HalKeyInit
        CODE
//  207 {
        PUSH      DPL
          CFI DPL0 Frame(CFA_SP, 4)
          CFI CFA_SP SP+-4
        PUSH      DPH
          CFI DPH0 Frame(CFA_SP, 5)
          CFI CFA_SP SP+-5
        ; Saved register size: 2
        ; Auto size: 0
//  208   /* Initialize previous key to 0 */
//  209   halKeySavedKeys = 0;
        MOV       DPTR,#halKeySavedKeys
        CLR       A
        MOVX      @DPTR,A
//  210 
//  211   HAL_KEY_SW_6_SEL &= ~(HAL_KEY_SW_6_BIT);    /* Set pin function to GPIO */
        ANL       0xf4,#0xfb
//  212   HAL_KEY_SW_6_DIR &= ~(HAL_KEY_SW_6_BIT);    /* Set pin direction to Input */
        ANL       0xfe,#0xfb
//  213 
//  214 //  HAL_KEY_JOY_MOVE_SEL &= ~(HAL_KEY_JOY_MOVE_BIT); /* Set pin function to GPIO */
//  215 //  HAL_KEY_JOY_MOVE_DIR &= ~(HAL_KEY_JOY_MOVE_BIT); /* Set pin direction to Input */
//  216   
//  217   HAL_KEY_SW_5_SEL &= ~(HAL_KEY_SW_5_BIT);    /* Set pin function to GPIO */
        ANL       0xf4,#0xfd
//  218   HAL_KEY_SW_5_DIR &= ~(HAL_KEY_SW_5_BIT);    /* Set pin direction to Input */
        ANL       0xfe,#0xfd
//  219 
//  220 
//  221   /* Initialize callback function */
//  222   pHalKeyProcessFunction  = NULL;
        MOV       DPTR,#pHalKeyProcessFunction
        MOVX      @DPTR,A
        INC       DPTR
        MOVX      @DPTR,A
//  223 
//  224   /* Start with key is not configured */
//  225   HalKeyConfigured = FALSE;
        MOV       DPTR,#HalKeyConfigured
        MOVX      @DPTR,A
//  226 }
        LJMP      ?Subroutine0 & 0xFFFF
          CFI EndBlock cfiBlock0
        REQUIRE P1SEL
        REQUIRE P1DIR
//  227 
//  228 
//  229 /**************************************************************************************************
//  230  * @fn      HalKeyConfig
//  231  *
//  232  * @brief   Configure the Key serivce
//  233  *
//  234  * @param   interruptEnable - TRUE/FALSE, enable/disable interrupt
//  235  *          cback - pointer to the CallBack function
//  236  *
//  237  * @return  None
//  238  **************************************************************************************************/

        RSEG BANKED_CODE:HUGECODE:NOROOT(0)
//  239 void HalKeyConfig (bool interruptEnable, halKeyCBack_t cback)
HalKeyConfig:
          CFI Block cfiBlock1 Using cfiCommon0
          CFI Function HalKeyConfig
        CODE
//  240 {
        FUNCALL HalKeyConfig, osal_stop_timerEx
        LOCFRAME ISTACK, 0, STACK
        LOCFRAME PSTACK, 0, STACK
        LOCFRAME XSTACK, 9, STACK
        LOCFRAME IOVERLAY, 0, STATIC
        LOCFRAME DOVERLAY, 0, STATIC
        ARGFRAME ISTACK, 0, STACK
        ARGFRAME PSTACK, 0, STACK
        ARGFRAME XSTACK, 9, STACK
        ARGFRAME IOVERLAY, 0, STATIC
        ARGFRAME DOVERLAY, 0, STATIC
        FUNCALL HalKeyConfig, osal_set_event
        LOCFRAME ISTACK, 0, STACK
        LOCFRAME PSTACK, 0, STACK
        LOCFRAME XSTACK, 9, STACK
        LOCFRAME IOVERLAY, 0, STATIC
        LOCFRAME DOVERLAY, 0, STATIC
        ARGFRAME ISTACK, 0, STACK
        ARGFRAME PSTACK, 0, STACK
        ARGFRAME XSTACK, 9, STACK
        ARGFRAME IOVERLAY, 0, STATIC
        ARGFRAME DOVERLAY, 0, STATIC
        MOV       A,#-0x9
        LCALL     ?BANKED_ENTER_XDATA
          CFI DPH0 load(1, XDATA, add(CFA_XSP16, literal(-1)))
          CFI DPL0 load(1, XDATA, add(CFA_XSP16, literal(-2)))
          CFI ?BRET_EXT load(1, XDATA, add(CFA_XSP16, literal(-3)))
          CFI ?RET_HIGH load(1, XDATA, add(CFA_XSP16, literal(-4)))
          CFI ?RET_LOW load(1, XDATA, add(CFA_XSP16, literal(-5)))
          CFI R7 load(1, XDATA, add(CFA_XSP16, literal(-6)))
          CFI V0 load(1, XDATA, add(CFA_XSP16, literal(-7)))
          CFI VB load(1, XDATA, add(CFA_XSP16, literal(-8)))
          CFI R6 load(1, XDATA, add(CFA_XSP16, literal(-9)))
          CFI CFA_SP SP+0
          CFI CFA_XSP16 add(XSP16, 9)
        ; Saved register size: 9
        ; Auto size: 0
        MOV       A,R1
//  241   /* Enable/Disable Interrupt or */
//  242   Hal_KeyIntEnable = interruptEnable;
        MOV       DPTR,#Hal_KeyIntEnable
        MOVX      @DPTR,A
//  243 
//  244   /* Register the callback fucntion */
//  245   pHalKeyProcessFunction = cback;
        MOV       DPTR,#pHalKeyProcessFunction
        MOV       A,R2
        MOVX      @DPTR,A
        INC       DPTR
        MOV       A,R3
        MOVX      @DPTR,A
//  246 
//  247   /* Determine if interrupt is enable or not */
//  248   if (Hal_KeyIntEnable)
        MOV       DPTR,#Hal_KeyIntEnable
        MOVX      A,@DPTR
        JZ        ??HalKeyConfig_0
//  249   {
//  250     /* Rising/Falling edge configuratinn */
//  251 
//  252     PICTL &= ~(HAL_KEY_SW_6_EDGEBIT);    /* Clear the edge bit */
        ANL       0x8c,#0xfe
//  253     /* For falling edge, the bit must be set. */
//  254   #if (HAL_KEY_SW_6_EDGE == HAL_KEY_FALLING_EDGE)
//  255     PICTL |= HAL_KEY_SW_6_EDGEBIT;
        ORL       0x8c,#0x1
//  256   #endif
//  257     
//  258     PICTL &= ~(HAL_KEY_SW_5_EDGEBIT);    /* Clear the edge bit */
        ANL       0x8c,#0xfe
//  259     /* For falling edge, the bit must be set. */
//  260   #if (HAL_KEY_SW_5_EDGE == HAL_KEY_FALLING_EDGE)
//  261     PICTL |= HAL_KEY_SW_5_EDGEBIT;
        ORL       0x8c,#0x1
//  262   #endif
//  263 
//  264 
//  265     /* Interrupt configuration:
//  266      * - Enable interrupt generation at the port
//  267      * - Enable CPU interrupt
//  268      * - Clear any pending interrupt
//  269      */
//  270     HAL_KEY_SW_6_ICTL |= HAL_KEY_SW_6_ICTLBIT;
        ORL       0x8d,#0x2
//  271     HAL_KEY_SW_6_IEN |= HAL_KEY_SW_6_IENBIT;
        SETB      0xb8.1
//  272     HAL_KEY_SW_6_PXIFG = ~(HAL_KEY_SW_6_BIT);
        MOV       0x8a,#-0x5
//  273 
//  274     HAL_KEY_SW_5_ICTL |= HAL_KEY_SW_5_ICTLBIT;
        ORL       0x8d,#0x2
//  275     HAL_KEY_SW_5_IEN |= HAL_KEY_SW_5_IENBIT;
        SETB      0xb8.1
//  276     HAL_KEY_SW_5_PXIFG = ~(HAL_KEY_SW_5_BIT);
        MOV       0x8a,#-0x3
//  277 
//  278 
//  279     /* Rising/Falling edge configuratinn */
//  280 
//  281 //    HAL_KEY_JOY_MOVE_ICTL &= ~(HAL_KEY_JOY_MOVE_EDGEBIT);    /* Clear the edge bit */
//  282 //    /* For falling edge, the bit must be set. */
//  283 //  #if (HAL_KEY_JOY_MOVE_EDGE == HAL_KEY_FALLING_EDGE)
//  284 //    HAL_KEY_JOY_MOVE_ICTL |= HAL_KEY_JOY_MOVE_EDGEBIT;
//  285 //  #endif
//  286 
//  287 
//  288 //    /* Interrupt configuration:
//  289 //     * - Enable interrupt generation at the port
//  290 //     * - Enable CPU interrupt
//  291 //     * - Clear any pending interrupt
//  292 //     */
//  293 //    HAL_KEY_JOY_MOVE_ICTL |= HAL_KEY_JOY_MOVE_ICTLBIT;
//  294 //    HAL_KEY_JOY_MOVE_IEN |= HAL_KEY_JOY_MOVE_IENBIT;
//  295 //    HAL_KEY_JOY_MOVE_PXIFG = ~(HAL_KEY_JOY_MOVE_BIT);
//  296 
//  297 
//  298     /* Do this only after the hal_key is configured - to work with sleep stuff */
//  299     if (HalKeyConfigured == TRUE)
        MOV       DPTR,#HalKeyConfigured
        MOVX      A,@DPTR
        XRL       A,#0x1
        JNZ       ??HalKeyConfig_1
//  300     {
//  301       osal_stop_timerEx(Hal_TaskID, HAL_KEY_EVENT);  /* Cancel polling if active */
        ; Setup parameters for call to function osal_stop_timerEx
        MOV       R2,#0x10
        MOV       R3,#0x0
        MOV       DPTR,#Hal_TaskID
        MOVX      A,@DPTR
        MOV       R1,A
        LCALL     `??osal_stop_timerEx::?relay`; Banked call to: osal_stop_timerEx
        SJMP      ??HalKeyConfig_1
//  302     }
//  303   }
//  304   else    /* Interrupts NOT enabled */
//  305   {
//  306     HAL_KEY_SW_6_ICTL &= ~(HAL_KEY_SW_6_ICTLBIT); /* don't generate interrupt */
??HalKeyConfig_0:
        ANL       0x8d,#0xfd
//  307     HAL_KEY_SW_6_IEN &= ~(HAL_KEY_SW_6_IENBIT);   /* Clear interrupt enable bit */
        CLR       0xb8.1
//  308 
//  309     HAL_KEY_SW_5_ICTL &= ~(HAL_KEY_SW_5_ICTLBIT); /* don't generate interrupt */
        ANL       0x8d,#0xfd
//  310     HAL_KEY_SW_5_IEN &= ~(HAL_KEY_SW_5_IENBIT);   /* Clear interrupt enable bit */  
        CLR       0xb8.1
//  311     
//  312     osal_set_event(Hal_TaskID, HAL_KEY_EVENT);
        ; Setup parameters for call to function osal_set_event
        MOV       R2,#0x10
        MOV       R3,#0x0
        MOV       DPTR,#Hal_TaskID
        MOVX      A,@DPTR
        MOV       R1,A
        LCALL     `??osal_set_event::?relay`; Banked call to: osal_set_event
//  313   }
//  314 
//  315   /* Key now is configured */
//  316   HalKeyConfigured = TRUE;
??HalKeyConfig_1:
        MOV       DPTR,#HalKeyConfigured
        MOV       A,#0x1
        MOVX      @DPTR,A
//  317 }
        MOV       R7,A
        LJMP      ?BANKED_LEAVE_XDATA
          CFI EndBlock cfiBlock1
        REQUIRE PICTL
        REQUIRE P1IEN
        REQUIRE _A_IEN1
        REQUIRE P1IFG
//  318 
//  319 
//  320 /**************************************************************************************************
//  321  * @fn      HalKeyRead
//  322  *
//  323  * @brief   Read the current value of a key
//  324  *
//  325  * @param   None
//  326  *
//  327  * @return  keys - current keys status
//  328  **************************************************************************************************/

        RSEG BANKED_CODE:HUGECODE:NOROOT(0)
//  329 uint8 HalKeyRead ( void )
HalKeyRead:
          CFI Block cfiBlock2 Using cfiCommon0
          CFI Function HalKeyRead
        CODE
//  330 {
        ; Saved register size: 0
        ; Auto size: 0
//  331   
//  332   uint8 keys = 0;
        MOV       R1,#0x0
//  333 
//  334   if (HAL_PUSH_BUTTON1())
        MOV       C,0x90.2
        JC        ??HalKeyRead_0
//  335   {
//  336     keys |= HAL_KEY_SW_6;
        MOV       R1,#0x20
//  337   }
//  338   
//  339   if (HAL_PUSH_BUTTON1())
??HalKeyRead_0:
        MOV       C,0x90.2
        JC        ??HalKeyRead_1
//  340   {
//  341     keys |= HAL_KEY_SW_5;
        MOV       A,R1
        SETB      0xE0 /* A   */.2
        MOV       R1,A
//  342   }
//  343 
//  344 //  if ((HAL_KEY_JOY_MOVE_PORT & HAL_KEY_JOY_MOVE_BIT))  /* Key is active low */
//  345 //  {
//  346 //    keys |= halGetJoyKeyInput();
//  347 //  }
//  348 
//  349   return keys;
??HalKeyRead_1:
        LJMP      ?BRET
          CFI EndBlock cfiBlock2
        REQUIRE _A_P1
//  350 }
//  351 
//  352 
//  353 /**************************************************************************************************
//  354  * @fn      HalKeyPoll
//  355  *
//  356  * @brief   Called by hal_driver to poll the keys
//  357  *
//  358  * @param   None
//  359  *
//  360  * @return  None
//  361  **************************************************************************************************/

        RSEG BANKED_CODE:HUGECODE:NOROOT(0)
//  362 void HalKeyPoll (void)
HalKeyPoll:
          CFI Block cfiBlock3 Using cfiCommon0
          CFI Function HalKeyPoll
        CODE
//  363 {
        PUSH      DPL
          CFI DPL0 Frame(CFA_SP, 4)
          CFI CFA_SP SP+-4
        PUSH      DPH
          CFI DPH0 Frame(CFA_SP, 5)
          CFI CFA_SP SP+-5
        ; Saved register size: 2
        ; Auto size: 0
//  364   uint8 keys = 0;
        MOV       R1,#0x0
//  365 
//  366 //  if ((HAL_KEY_JOY_MOVE_PORT & HAL_KEY_JOY_MOVE_BIT))  /* Key is active HIGH */
//  367 //  {
//  368 //    keys = halGetJoyKeyInput();
//  369 //  }
//  370    
//  371   if (HAL_PUSH_BUTTON1())
        MOV       C,0x90.2
        JC        ??HalKeyPoll_0
//  372   {
//  373     keys |= HAL_KEY_SW_6;
        MOV       R1,#0x20
//  374   }
//  375 
//  376   if (HAL_PUSH_BUTTON2())
??HalKeyPoll_0:
        MOV       C,0x90.1
        JNC       ??HalKeyPoll_1
//  377   {
//  378     keys |= HAL_KEY_SW_5;
        MOV       A,R1
        SETB      0xE0 /* A   */.2
        MOV       R1,A
//  379   }  
//  380   
//  381   if ((!HAL_PUSH_BUTTON2())&&(!UV_Auto_Turn_Off))
??HalKeyPoll_1:
        MOV       C,0x90.1
        JC        ??HalKeyPoll_2
        MOV       DPTR,#UV_Auto_Turn_Off
        MOVX      A,@DPTR
        JNZ       ??HalKeyPoll_2
//  382   {
//  383     keys |= HAL_KEY_SW_3;
        MOV       A,R1
        SETB      0xE0 /* A   */.4
        MOV       R1,A
//  384   }  
//  385   
//  386   /* If interrupts are not enabled, previous key status and current key status
//  387    * are compared to find out if a key has changed status.
//  388    */
//  389   if (!Hal_KeyIntEnable)
??HalKeyPoll_2:
        MOV       DPTR,#Hal_KeyIntEnable
        MOVX      A,@DPTR
        JNZ       ??HalKeyPoll_3
//  390   {
//  391     if (keys == halKeySavedKeys)
        MOV       DPTR,#halKeySavedKeys
        MOVX      A,@DPTR
        XRL       A,R1
        JZ        ??HalKeyPoll_4
//  392     {
//  393       /* Exit - since no keys have changed */
//  394       return;
//  395     }
//  396     /* Store the current keys for comparation next time */
//  397     halKeySavedKeys = keys;
        MOV       A,R1
        MOVX      @DPTR,A
//  398   }
//  399   else
//  400   {
//  401     /* Key interrupt handled here */
//  402   }
//  403 
//  404 
//  405   
//  406   /* Invoke Callback if new keys were depressed */
//  407   if (keys && (pHalKeyProcessFunction))
??HalKeyPoll_3:
        MOV       A,R1
        JZ        ??HalKeyPoll_4
        MOV       DPTR,#pHalKeyProcessFunction
        MOVX      A,@DPTR
        MOV       R2,A
        INC       DPTR
        MOVX      A,@DPTR
        MOV       R3,A
        MOV       A,R2
        ORL       A,R3
        JZ        ??HalKeyPoll_4
//  408   {
//  409     (pHalKeyProcessFunction) (keys, HAL_KEY_STATE_NORMAL);
        ; Setup parameters for indirect call
        MOV       R2,#0x0
        MOV       DPTR,#pHalKeyProcessFunction
        MOVX      A,@DPTR
        MOV       R0,A
        INC       DPTR
        MOVX      A,@DPTR
        MOV       DPH,A
        MOV       DPL,R0
        LCALL     ?CALL_IND
//  410   }
//  411 }
??HalKeyPoll_4:
        LJMP      ?Subroutine0 & 0xFFFF
          CFI EndBlock cfiBlock3
        REQUIRE _A_P1
//  412 
//  413 /**************************************************************************************************
//  414  * @fn      halGetJoyKeyInput
//  415  *
//  416  * @brief   Map the ADC value to its corresponding key.
//  417  *
//  418  * @param   None
//  419  *
//  420  * @return  keys - current joy key status
//  421  **************************************************************************************************/

        RSEG BANKED_CODE:HUGECODE:NOROOT(0)
//  422 uint8 halGetJoyKeyInput(void)
halGetJoyKeyInput:
          CFI Block cfiBlock4 Using cfiCommon0
          CFI Function halGetJoyKeyInput
        CODE
//  423 {
        FUNCALL halGetJoyKeyInput, HalAdcRead
        LOCFRAME ISTACK, 0, STACK
        LOCFRAME PSTACK, 0, STACK
        LOCFRAME XSTACK, 9, STACK
        LOCFRAME IOVERLAY, 0, STATIC
        LOCFRAME DOVERLAY, 0, STATIC
        ARGFRAME ISTACK, 0, STACK
        ARGFRAME PSTACK, 0, STACK
        ARGFRAME XSTACK, 9, STACK
        ARGFRAME IOVERLAY, 0, STATIC
        ARGFRAME DOVERLAY, 0, STATIC
        MOV       A,#-0x9
        LCALL     ?BANKED_ENTER_XDATA
          CFI DPH0 load(1, XDATA, add(CFA_XSP16, literal(-1)))
          CFI DPL0 load(1, XDATA, add(CFA_XSP16, literal(-2)))
          CFI ?BRET_EXT load(1, XDATA, add(CFA_XSP16, literal(-3)))
          CFI ?RET_HIGH load(1, XDATA, add(CFA_XSP16, literal(-4)))
          CFI ?RET_LOW load(1, XDATA, add(CFA_XSP16, literal(-5)))
          CFI R7 load(1, XDATA, add(CFA_XSP16, literal(-6)))
          CFI V0 load(1, XDATA, add(CFA_XSP16, literal(-7)))
          CFI VB load(1, XDATA, add(CFA_XSP16, literal(-8)))
          CFI R6 load(1, XDATA, add(CFA_XSP16, literal(-9)))
          CFI CFA_SP SP+0
          CFI CFA_XSP16 add(XSP16, 9)
        ; Saved register size: 9
        ; Auto size: 0
//  424   /* The joystick control is encoded as an analog voltage.
//  425    * Read the JOY_LEVEL analog value and map it to joy movement.
//  426    */
//  427   uint8 adc;
//  428   uint8 ksave0 = 0;
        MOV       R6,#0x0
//  429   uint8 ksave1;
//  430 
//  431   /* Keep on reading the ADC until two consecutive key decisions are the same. */
//  432   do
//  433   {
//  434     ksave1 = ksave0;    /* save previouse key reading */
??halGetJoyKeyInput_0:
        MOV       A,R6
        MOV       R7,A
//  435 
//  436     adc = HalAdcRead (HAL_KEY_JOY_CHN, HAL_ADC_RESOLUTION_8);
        ; Setup parameters for call to function HalAdcRead
        MOV       R2,#0x1
        MOV       R1,#0x6
        LCALL     `??HalAdcRead::?relay`; Banked call to: HalAdcRead
        MOV       A,R2
        MOV       R0,A
//  437 
//  438     if ((adc >= 2) && (adc <= 38))
        MOV       A,#-0x2
        ADD       A,R2
        CLR       C
        SUBB      A,#0x25
        JNC       ??halGetJoyKeyInput_1
//  439     {
//  440        ksave0 |= HAL_KEY_UP;
        MOV       A,R6
        SETB      0xE0 /* A   */.0
        SJMP      ??halGetJoyKeyInput_2
//  441     }
//  442     else if ((adc >= 74) && (adc <= 88))
??halGetJoyKeyInput_1:
        MOV       A,#-0x4a
        ADD       A,R2
        CLR       C
        SUBB      A,#0xf
        JNC       ??halGetJoyKeyInput_3
//  443     {
//  444       ksave0 |= HAL_KEY_RIGHT;
        MOV       A,R6
        SETB      0xE0 /* A   */.1
        SJMP      ??halGetJoyKeyInput_2
//  445     }
//  446     else if ((adc >= 60) && (adc <= 73))
??halGetJoyKeyInput_3:
        MOV       A,#-0x3c
        ADD       A,R2
        CLR       C
        SUBB      A,#0xe
        JNC       ??halGetJoyKeyInput_4
//  447     {
//  448       ksave0 |= HAL_KEY_LEFT;
        MOV       A,R6
        SETB      0xE0 /* A   */.3
        SJMP      ??halGetJoyKeyInput_2
//  449     }
//  450     else if ((adc >= 39) && (adc <= 59))
??halGetJoyKeyInput_4:
        MOV       A,#-0x27
        ADD       A,R2
        CLR       C
        SUBB      A,#0x15
        JNC       ??halGetJoyKeyInput_5
//  451     {
//  452       ksave0 |= HAL_KEY_DOWN;
        MOV       A,R6
        SETB      0xE0 /* A   */.4
        SJMP      ??halGetJoyKeyInput_2
//  453     }
//  454     else if ((adc >= 89) && (adc <= 100))
??halGetJoyKeyInput_5:
        MOV       A,#-0x59
        ADD       A,R2
        CLR       C
        SUBB      A,#0xc
        JNC       ??halGetJoyKeyInput_6
//  455     {
//  456       ksave0 |= HAL_KEY_CENTER;
        MOV       A,R6
        SETB      0xE0 /* A   */.2
??halGetJoyKeyInput_2:
        MOV       R6,A
//  457     }
//  458   } while (ksave0 != ksave1);
??halGetJoyKeyInput_6:
        MOV       A,R7
        XRL       A,R6
        JNZ       ??halGetJoyKeyInput_0
//  459 
//  460   return ksave0;
        MOV       A,R6
        MOV       R1,A
        MOV       R7,#0x1
        LJMP      ?BANKED_LEAVE_XDATA
//  461 }
          CFI EndBlock cfiBlock4
//  462 
//  463 
//  464 
//  465 
//  466 
//  467 /**************************************************************************************************
//  468  * @fn      halProcessKeyInterrupt
//  469  *
//  470  * @brief   Checks to see if it's a valid key interrupt, saves interrupt driven key states for
//  471  *          processing by HalKeyRead(), and debounces keys by scheduling HalKeyRead() 25ms later.
//  472  *
//  473  * @param
//  474  *
//  475  * @return
//  476  **************************************************************************************************/

        RSEG BANKED_CODE:HUGECODE:NOROOT(0)
//  477 void halProcessKeyInterrupt (void)
halProcessKeyInterrupt:
          CFI Block cfiBlock5 Using cfiCommon0
          CFI Function halProcessKeyInterrupt
        CODE
//  478 {
        FUNCALL halProcessKeyInterrupt, osal_start_timerEx
        LOCFRAME ISTACK, 2, STACK
        LOCFRAME PSTACK, 0, STACK
        LOCFRAME XSTACK, 4, STACK
        LOCFRAME IOVERLAY, 0, STATIC
        LOCFRAME DOVERLAY, 0, STATIC
        ARGFRAME ISTACK, 2, STACK
        ARGFRAME PSTACK, 0, STACK
        ARGFRAME XSTACK, 4, STACK
        ARGFRAME IOVERLAY, 0, STATIC
        ARGFRAME DOVERLAY, 0, STATIC
        PUSH      DPL
          CFI DPL0 Frame(CFA_SP, 4)
          CFI CFA_SP SP+-4
        PUSH      DPH
          CFI DPH0 Frame(CFA_SP, 5)
          CFI CFA_SP SP+-5
        ; Saved register size: 2
        ; Auto size: 0
//  479   bool valid=FALSE;
        MOV       R0,#0x0
//  480 
//  481   if (HAL_KEY_SW_6_PXIFG & HAL_KEY_SW_6_BIT)  /* Interrupt Flag has been set */
        MOV       A,0x8a
        MOV       C,0xE0 /* A   */.2
        JNC       ??halProcessKeyInterrupt_0
//  482   {
//  483     HAL_KEY_SW_6_PXIFG = ~(HAL_KEY_SW_6_BIT); /* Clear Interrupt Flag */
        MOV       0x8a,#-0x5
//  484     valid = TRUE;
        MOV       R0,#0x1
//  485   }
//  486 
//  487   if (HAL_KEY_JOY_MOVE_PXIFG & HAL_KEY_JOY_MOVE_BIT)  /* Interrupt Flag has been set */
??halProcessKeyInterrupt_0:
        MOV       A,0x8b
        MOV       C,0xE0 /* A   */.0
        JNC       ??halProcessKeyInterrupt_1
//  488   {
//  489     HAL_KEY_JOY_MOVE_PXIFG = ~(HAL_KEY_JOY_MOVE_BIT); /* Clear Interrupt Flag */
        MOV       0x8b,#-0x2
//  490     valid = TRUE;
        SJMP      ??halProcessKeyInterrupt_2
//  491   }
//  492 
//  493   if (valid)
??halProcessKeyInterrupt_1:
        MOV       A,R0
        MOV       C,0xE0 /* A   */.0
        JNC       ??halProcessKeyInterrupt_3
//  494   {
//  495     osal_start_timerEx (Hal_TaskID, HAL_KEY_EVENT, HAL_KEY_DEBOUNCE_VALUE);
??halProcessKeyInterrupt_2:
        ; Setup parameters for call to function osal_start_timerEx
        MOV       DPTR,#__Constant_19
        LCALL     ?PUSH_XSTACK8_X_FOUR
          CFI CFA_XSP16 add(XSP16, 4)
        MOV       R2,#0x10
        MOV       R3,#0x0
        MOV       DPTR,#Hal_TaskID
        MOVX      A,@DPTR
        MOV       R1,A
        LCALL     `??osal_start_timerEx::?relay`; Banked call to: osal_start_timerEx
        MOV       A,#0x4
        LCALL     ?DEALLOC_XSTACK8
          CFI CFA_XSP16 XSP16+0
//  496   }
//  497 }
??halProcessKeyInterrupt_3:
          CFI EndBlock cfiBlock5
        REQUIRE ?Subroutine0
        REQUIRE P1IFG
        REQUIRE P2IFG
        ; // Fall through to label ?Subroutine0

        RSEG BANKED_CODE:HUGECODE:NOROOT(0)
?Subroutine0:
          CFI Block cfiBlock6 Using cfiCommon0
          CFI NoFunction
          CFI CFA_SP SP+-5
          CFI DPL0 Frame(CFA_SP, 4)
          CFI DPH0 Frame(CFA_SP, 5)
        POP       DPH
          CFI CFA_SP SP+-4
          CFI DPH0 SameValue
        POP       DPL
          CFI CFA_SP SP+-3
          CFI DPL0 SameValue
        LJMP      ?BRET
          CFI EndBlock cfiBlock6
//  498 
//  499 /**************************************************************************************************
//  500  * @fn      HalKeyEnterSleep
//  501  *
//  502  * @brief  - Get called to enter sleep mode
//  503  *
//  504  * @param
//  505  *
//  506  * @return
//  507  **************************************************************************************************/

        RSEG BANKED_CODE:HUGECODE:NOROOT(0)
//  508 void HalKeyEnterSleep ( void )
HalKeyEnterSleep:
          CFI Block cfiBlock7 Using cfiCommon0
          CFI Function HalKeyEnterSleep
        CODE
//  509 {
        ; Saved register size: 0
        ; Auto size: 0
//  510 }
        LJMP      ?BRET
          CFI EndBlock cfiBlock7
//  511 
//  512 /**************************************************************************************************
//  513  * @fn      HalKeyExitSleep
//  514  *
//  515  * @brief   - Get called when sleep is over
//  516  *
//  517  * @param
//  518  *
//  519  * @return  - return saved keys
//  520  **************************************************************************************************/

        RSEG BANKED_CODE:HUGECODE:NOROOT(0)
//  521 uint8 HalKeyExitSleep ( void )
HalKeyExitSleep:
          CFI Block cfiBlock8 Using cfiCommon0
          CFI Function HalKeyExitSleep
        CODE
//  522 {
        FUNCALL HalKeyExitSleep, HalKeyRead
        LOCFRAME ISTACK, 2, STACK
        LOCFRAME PSTACK, 0, STACK
        LOCFRAME XSTACK, 0, STACK
        LOCFRAME IOVERLAY, 0, STATIC
        LOCFRAME DOVERLAY, 0, STATIC
        ARGFRAME ISTACK, 2, STACK
        ARGFRAME PSTACK, 0, STACK
        ARGFRAME XSTACK, 0, STACK
        ARGFRAME IOVERLAY, 0, STATIC
        ARGFRAME DOVERLAY, 0, STATIC
        PUSH      DPL
          CFI DPL0 Frame(CFA_SP, 4)
          CFI CFA_SP SP+-4
        PUSH      DPH
          CFI DPH0 Frame(CFA_SP, 5)
          CFI CFA_SP SP+-5
        ; Saved register size: 2
        ; Auto size: 0
//  523   /* Wake up and read keys */
//  524   return ( HalKeyRead () );
        ; Setup parameters for call to function HalKeyRead
        LCALL     `??HalKeyRead::?relay`; Banked call to: HalKeyRead
        SJMP      ?Subroutine0
//  525 }
          CFI EndBlock cfiBlock8
//  526 
//  527 /***************************************************************************************************
//  528  *                                    INTERRUPT SERVICE ROUTINE
//  529  ***************************************************************************************************/
//  530 
//  531 /**************************************************************************************************
//  532  * @fn      halKeyPort0Isr
//  533  *
//  534  * @brief   Port0 ISR
//  535  *
//  536  * @param
//  537  *
//  538  * @return
//  539  **************************************************************************************************/

        RSEG NEAR_CODE:CODE:NOROOT(0)
//  540 HAL_ISR_FUNCTION( halKeyPort0Isr, P0INT_VECTOR )
halKeyPort0Isr:
          CFI Block cfiBlock9 Using cfiCommon1
          CFI Function halKeyPort0Isr
        CODE
//  541 {
        FUNCALL halKeyPort0Isr, halProcessKeyInterrupt
        LOCFRAME ISTACK, 0, STACK
        LOCFRAME PSTACK, 0, STACK
        LOCFRAME XSTACK, 14, STACK
        LOCFRAME IOVERLAY, 0, STATIC
        LOCFRAME DOVERLAY, 0, STATIC
        ARGFRAME ISTACK, 0, STACK
        ARGFRAME PSTACK, 0, STACK
        ARGFRAME XSTACK, 14, STACK
        ARGFRAME IOVERLAY, 0, STATIC
        ARGFRAME DOVERLAY, 0, STATIC
        PUSH      A
          CFI A Frame(CFA_SP, 3)
          CFI CFA_SP SP+-3
        MOV       A,#-0xe
        LCALL     ?INTERRUPT_ENTER_XSP
          CFI B load(1, XDATA, add(CFA_XSP16, literal(-1)))
          CFI VB load(1, XDATA, add(CFA_XSP16, literal(-2)))
          CFI PSW load(1, XDATA, add(CFA_XSP16, literal(-3)))
          CFI DPL0 load(1, XDATA, add(CFA_XSP16, literal(-4)))
          CFI DPH0 load(1, XDATA, add(CFA_XSP16, literal(-5)))
          CFI R7 load(1, XDATA, add(CFA_XSP16, literal(-6)))
          CFI R6 load(1, XDATA, add(CFA_XSP16, literal(-7)))
          CFI R5 load(1, XDATA, add(CFA_XSP16, literal(-8)))
          CFI R4 load(1, XDATA, add(CFA_XSP16, literal(-9)))
          CFI V0 load(1, XDATA, add(CFA_XSP16, literal(-10)))
          CFI R3 load(1, XDATA, add(CFA_XSP16, literal(-11)))
          CFI R2 load(1, XDATA, add(CFA_XSP16, literal(-12)))
          CFI R1 load(1, XDATA, add(CFA_XSP16, literal(-13)))
          CFI R0 load(1, XDATA, add(CFA_XSP16, literal(-14)))
          CFI CFA_XSP16 add(XSP16, 14)
        ; Saved register size: 14
        ; Auto size: 0
//  542   HAL_ENTER_ISR();
        MOV       C,0xa8.7
        CLR       A
        RLC       A
        MOV       R6,A
        SETB      0xa8.7
//  543 
//  544   if (HAL_KEY_SW_6_PXIFG & HAL_KEY_SW_6_BIT)
        MOV       A,0x8a
        MOV       C,0xE0 /* A   */.2
        JNC       ??halKeyPort0Isr_0
//  545   {
//  546     halProcessKeyInterrupt();
        ; Setup parameters for call to function halProcessKeyInterrupt
        LCALL     `??halProcessKeyInterrupt::?relay`; Banked call to: halProcessKeyInterrupt
//  547   }
//  548 
//  549   /*
//  550     Clear the CPU interrupt flag for Port_0
//  551     PxIFG has to be cleared before PxIF
//  552   */
//  553   HAL_KEY_SW_6_PXIFG = 0;
??halKeyPort0Isr_0:
        MOV       0x8a,#0x0
//  554   HAL_KEY_CPU_PORT_0_IF = 0;
        CLR       0xc0.5
//  555   
//  556   CLEAR_SLEEP_MODE();
//  557   HAL_EXIT_ISR();
          CFI EndBlock cfiBlock9
        REQUIRE ?Subroutine1
        REQUIRE _A_IEN0
        REQUIRE P1IFG
        REQUIRE _A_IRCON
        ; // Fall through to label ?Subroutine1
//  558 }

        RSEG NEAR_CODE:CODE:NOROOT(0)
?Subroutine1:
          CFI Block cfiBlock10 Using cfiCommon1
          CFI NoFunction
          CFI CFA_SP SP+-3
          CFI CFA_XSP16 add(XSP16, 14)
          CFI VB load(1, XDATA, add(CFA_XSP16, literal(-2)))
          CFI B load(1, XDATA, add(CFA_XSP16, literal(-1)))
          CFI A Frame(CFA_SP, 3)
          CFI PSW load(1, XDATA, add(CFA_XSP16, literal(-3)))
          CFI DPL0 load(1, XDATA, add(CFA_XSP16, literal(-4)))
          CFI DPH0 load(1, XDATA, add(CFA_XSP16, literal(-5)))
          CFI R0 load(1, XDATA, add(CFA_XSP16, literal(-14)))
          CFI R1 load(1, XDATA, add(CFA_XSP16, literal(-13)))
          CFI R2 load(1, XDATA, add(CFA_XSP16, literal(-12)))
          CFI R3 load(1, XDATA, add(CFA_XSP16, literal(-11)))
          CFI R4 load(1, XDATA, add(CFA_XSP16, literal(-9)))
          CFI R5 load(1, XDATA, add(CFA_XSP16, literal(-8)))
          CFI R6 load(1, XDATA, add(CFA_XSP16, literal(-7)))
          CFI R7 load(1, XDATA, add(CFA_XSP16, literal(-6)))
          CFI V0 load(1, XDATA, add(CFA_XSP16, literal(-10)))
        MOV       A,R6
        MOV       C,0xE0 /* A   */.0
        MOV       0xa8.7,C
        MOV       R7,#0x1
        LJMP      ?INTERRUPT_LEAVE_XSP
          CFI EndBlock cfiBlock10
//  559 
//  560 
//  561 /**************************************************************************************************
//  562  * @fn      halKeyPort2Isr
//  563  *
//  564  * @brief   Port2 ISR
//  565  *
//  566  * @param
//  567  *
//  568  * @return
//  569  **************************************************************************************************/

        RSEG NEAR_CODE:CODE:NOROOT(0)
//  570 HAL_ISR_FUNCTION( halKeyPort2Isr, P2INT_VECTOR )
halKeyPort2Isr:
          CFI Block cfiBlock11 Using cfiCommon1
          CFI Function halKeyPort2Isr
        CODE
//  571 {
        FUNCALL halKeyPort2Isr, halProcessKeyInterrupt
        LOCFRAME ISTACK, 0, STACK
        LOCFRAME PSTACK, 0, STACK
        LOCFRAME XSTACK, 14, STACK
        LOCFRAME IOVERLAY, 0, STATIC
        LOCFRAME DOVERLAY, 0, STATIC
        ARGFRAME ISTACK, 0, STACK
        ARGFRAME PSTACK, 0, STACK
        ARGFRAME XSTACK, 14, STACK
        ARGFRAME IOVERLAY, 0, STATIC
        ARGFRAME DOVERLAY, 0, STATIC
        PUSH      A
          CFI A Frame(CFA_SP, 3)
          CFI CFA_SP SP+-3
        MOV       A,#-0xe
        LCALL     ?INTERRUPT_ENTER_XSP
          CFI B load(1, XDATA, add(CFA_XSP16, literal(-1)))
          CFI VB load(1, XDATA, add(CFA_XSP16, literal(-2)))
          CFI PSW load(1, XDATA, add(CFA_XSP16, literal(-3)))
          CFI DPL0 load(1, XDATA, add(CFA_XSP16, literal(-4)))
          CFI DPH0 load(1, XDATA, add(CFA_XSP16, literal(-5)))
          CFI R7 load(1, XDATA, add(CFA_XSP16, literal(-6)))
          CFI R6 load(1, XDATA, add(CFA_XSP16, literal(-7)))
          CFI R5 load(1, XDATA, add(CFA_XSP16, literal(-8)))
          CFI R4 load(1, XDATA, add(CFA_XSP16, literal(-9)))
          CFI V0 load(1, XDATA, add(CFA_XSP16, literal(-10)))
          CFI R3 load(1, XDATA, add(CFA_XSP16, literal(-11)))
          CFI R2 load(1, XDATA, add(CFA_XSP16, literal(-12)))
          CFI R1 load(1, XDATA, add(CFA_XSP16, literal(-13)))
          CFI R0 load(1, XDATA, add(CFA_XSP16, literal(-14)))
          CFI CFA_XSP16 add(XSP16, 14)
        ; Saved register size: 14
        ; Auto size: 0
//  572   HAL_ENTER_ISR();
        MOV       C,0xa8.7
        CLR       A
        RLC       A
        MOV       R6,A
        SETB      0xa8.7
//  573   
//  574   if (HAL_KEY_JOY_MOVE_PXIFG & HAL_KEY_JOY_MOVE_BIT)
        MOV       A,0x8b
        MOV       C,0xE0 /* A   */.0
        JNC       ??halKeyPort2Isr_0
//  575   {
//  576     halProcessKeyInterrupt();
        ; Setup parameters for call to function halProcessKeyInterrupt
        LCALL     `??halProcessKeyInterrupt::?relay`; Banked call to: halProcessKeyInterrupt
//  577   }
//  578 
//  579   /*
//  580     Clear the CPU interrupt flag for Port_2
//  581     PxIFG has to be cleared before PxIF
//  582     Notes: P2_1 and P2_2 are debug lines.
//  583   */
//  584   HAL_KEY_JOY_MOVE_PXIFG = 0;
??halKeyPort2Isr_0:
        MOV       0x8b,#0x0
//  585   HAL_KEY_CPU_PORT_2_IF = 0;
        CLR       0xe8.0
//  586 
//  587   CLEAR_SLEEP_MODE();
//  588   HAL_EXIT_ISR();
        SJMP      ?Subroutine1
          CFI EndBlock cfiBlock11
        REQUIRE _A_IEN0
        REQUIRE P2IFG
        REQUIRE _A_IRCON2
//  589 }

        COMMON INTVEC:CODE:ROOT(0)
        ORG 51
`??halKeyPort2Isr::??INTVEC 51`:
        LJMP       (halKeyPort2Isr)

        COMMON INTVEC:CODE:ROOT(0)
        ORG 107
`??halKeyPort0Isr::??INTVEC 107`:
        LJMP       (halKeyPort0Isr)

        RSEG XDATA_ROM_C:CONST:REORDER:NOROOT(0)
        DATA32
__Constant_19:
        DD 25

        RSEG BANK_RELAYS:CODE:REORDER:NOROOT(0)
`??HalKeyInit::?relay`:
        CODE
        LCALL   ?BDISPATCH
        DATA24
        DC24    HalKeyInit

        RSEG BANK_RELAYS:CODE:REORDER:NOROOT(0)
`??HalKeyConfig::?relay`:
        CODE
        LCALL   ?BDISPATCH
        DATA24
        DC24    HalKeyConfig

        RSEG BANK_RELAYS:CODE:REORDER:NOROOT(0)
`??HalKeyRead::?relay`:
        CODE
        LCALL   ?BDISPATCH
        DATA24
        DC24    HalKeyRead

        RSEG BANK_RELAYS:CODE:REORDER:NOROOT(0)
`??HalKeyPoll::?relay`:
        CODE
        LCALL   ?BDISPATCH
        DATA24
        DC24    HalKeyPoll

        RSEG BANK_RELAYS:CODE:REORDER:NOROOT(0)
`??halGetJoyKeyInput::?relay`:
        CODE
        LCALL   ?BDISPATCH
        DATA24
        DC24    halGetJoyKeyInput

        RSEG BANK_RELAYS:CODE:REORDER:NOROOT(0)
`??halProcessKeyInterrupt::?relay`:
        CODE
        LCALL   ?BDISPATCH
        DATA24
        DC24    halProcessKeyInterrupt

        RSEG BANK_RELAYS:CODE:REORDER:NOROOT(0)
`??HalKeyEnterSleep::?relay`:
        CODE
        LCALL   ?BDISPATCH
        DATA24
        DC24    HalKeyEnterSleep

        RSEG BANK_RELAYS:CODE:REORDER:NOROOT(0)
`??HalKeyExitSleep::?relay`:
        CODE
        LCALL   ?BDISPATCH
        DATA24
        DC24    HalKeyExitSleep

        END
//  590 
//  591 #else
//  592 
//  593 
//  594 void HalKeyInit(void){}
//  595 void HalKeyConfig(bool interruptEnable, halKeyCBack_t cback){}
//  596 uint8 HalKeyRead(void){ return 0;}
//  597 void HalKeyPoll(void){}
//  598 
//  599 #endif /* HAL_KEY */
//  600 
//  601 
//  602 /**************************************************************************************************
//  603 **************************************************************************************************/
//  604 
//  605 
//  606 
// 
// 410 bytes in segment BANKED_CODE
//  48 bytes in segment BANK_RELAYS
//   6 bytes in segment INTVEC
//  68 bytes in segment NEAR_CODE
//  11 bytes in segment SFR_AN
//   4 bytes in segment XDATA_ROM_C
//   6 bytes in segment XDATA_Z
// 
// 116 bytes of CODE     memory (+  6 bytes shared)
//   0 bytes of CONST    memory (+  4 bytes shared)
//   0 bytes of DATA     memory (+ 11 bytes shared)
// 410 bytes of HUGECODE memory
//   6 bytes of XDATA    memory
//
//Errors: none
//Warnings: none
